target datalayout = "e-m:e-p270:32:32-p271:32:32-p272:64:64-i64:64-i128:128-f80:128-n8:16:32:64-S128"
target triple = "x86_64-pc-linux-gnu"

%"class.std::basic_ostream" = type { ptr, %"class.std::basic_ios" }
%"class.std::basic_ios" = type { %"class.std::ios_base", ptr, i8, i8, ptr, ptr, ptr, ptr }
%"class.std::ios_base" = type { ptr, i64, i64, i32, i32, i32, ptr, %"struct.std::ios_base::_Words", [8 x %"struct.std::ios_base::_Words"], i32, ptr, %"class.std::locale" }
%"struct.std::ios_base::_Words" = type { ptr, i64 }
%"class.std::locale" = type { ptr }
%struct.ref_buffer = type { ptr }
%class.json_like_printer = type { %"class.msgpack::v2::parser", %struct.json_like_visitor.base, %"class.std::__cxx11::basic_string" }
%"class.msgpack::v2::parser" = type { %"class.msgpack::v2::detail::context", ptr, i64, i64, i64, i64, i64, ptr }
%"class.msgpack::v2::detail::context" = type { ptr, ptr, i64, i32, i32, %"struct.msgpack::v2::detail::context<json_like_printer>::unpack_stack" }
%"struct.msgpack::v2::detail::context<json_like_printer>::unpack_stack" = type { %"class.std::vector" }
%"class.std::vector" = type { %"struct.std::_Vector_base" }
%"struct.std::_Vector_base" = type { %"struct.std::_Vector_base<msgpack::v2::detail::context<json_like_printer>::unpack_stack::stack_elem, std::allocator<msgpack::v2::detail::context<json_like_printer>::unpack_stack::stack_elem>>::_Vector_impl" }
%"struct.std::_Vector_base<msgpack::v2::detail::context<json_like_printer>::unpack_stack::stack_elem, std::allocator<msgpack::v2::detail::context<json_like_printer>::unpack_stack::stack_elem>>::_Vector_impl" = type { %"struct.std::_Vector_base<msgpack::v2::detail::context<json_like_printer>::unpack_stack::stack_elem, std::allocator<msgpack::v2::detail::context<json_like_printer>::unpack_stack::stack_elem>>::_Vector_impl_data" }
%"struct.std::_Vector_base<msgpack::v2::detail::context<json_like_printer>::unpack_stack::stack_elem, std::allocator<msgpack::v2::detail::context<json_like_printer>::unpack_stack::stack_elem>>::_Vector_impl_data" = type { ptr, ptr, ptr }
%struct.json_like_visitor.base = type <{ ptr, i8 }>
%"class.std::__cxx11::basic_string" = type { %"struct.std::__cxx11::basic_string<char>::_Alloc_hider", i64, %union.anon }
%"struct.std::__cxx11::basic_string<char>::_Alloc_hider" = type { ptr }
%union.anon = type { i64, [8 x i8] }

@_ZSt4cout = external global %"class.std::basic_ostream", align 8

; Function Attrs: mustprogress nounwind uwtable
define linkonce_odr dso_local void @_ZNSt11char_traitsIcE6assignERcRKc(ptr noundef nonnull align 1 dereferenceable(1) %0, ptr noundef nonnull align 1 dereferenceable(1) %1) #4 comdat align 2 {
  %3 = alloca ptr, align 8
  %4 = alloca ptr, align 8
  store ptr %0, ptr %3, align 8, !tbaa !15
  store ptr %1, ptr %4, align 8, !tbaa !15
  %5 = load ptr, ptr %4, align 8, !tbaa !15
  %6 = load i8, ptr %5, align 1, !tbaa !38
  %7 = load ptr, ptr %3, align 8, !tbaa !15
  store i8 %6, ptr %7, align 1, !tbaa !38
  ret void
}

; Function Attrs: mustprogress nounwind uwtable
define linkonce_odr dso_local void @_ZNSt7__cxx1112basic_stringIcSt11char_traitsIcESaIcEE9_M_lengthEm(ptr noundef nonnull align 8 dereferenceable(32) %0, i64 noundef %1) #4 comdat align 2 {
  %3 = alloca ptr, align 8
  %4 = alloca i64, align 8
  store ptr %0, ptr %3, align 8, !tbaa !65
  store i64 %1, ptr %4, align 8, !tbaa !19
  %5 = load ptr, ptr %3, align 8
  %6 = load i64, ptr %4, align 8, !tbaa !19
  %7 = getelementptr inbounds nuw %"class.std::__cxx11::basic_string", ptr %5, i32 0, i32 1
  store i64 %6, ptr %7, align 8, !tbaa !68
  ret void
}

; Function Attrs: mustprogress nounwind uwtable
define linkonce_odr dso_local noundef ptr @_ZNKSt7__cxx1112basic_stringIcSt11char_traitsIcESaIcEE7_M_dataEv(ptr noundef nonnull align 8 dereferenceable(32) %0) #4 comdat align 2 {
  %2 = alloca ptr, align 8
  store ptr %0, ptr %2, align 8, !tbaa !65
  %3 = load ptr, ptr %2, align 8
  %4 = getelementptr inbounds nuw %"class.std::__cxx11::basic_string", ptr %3, i32 0, i32 0
  %5 = getelementptr inbounds nuw %"struct.std::__cxx11::basic_string<char>::_Alloc_hider", ptr %4, i32 0, i32 0
  %6 = load ptr, ptr %5, align 8, !tbaa !71
  ret ptr %6
}

; Function Attrs: noinline noreturn nounwind uwtable
define linkonce_odr hidden void @__clang_call_terminate(ptr noundef %0) #11 comdat {
  %2 = call ptr @__cxa_begin_catch(ptr %0) #3
  call void @_ZSt9terminatev() #21
  unreachable
}

; Function Attrs: mustprogress uwtable
define linkonce_odr dso_local void @_ZNSt7__cxx1112basic_stringIcSt11char_traitsIcESaIcEE13_M_set_lengthEm(ptr noundef nonnull align 8 dereferenceable(32) %0, i64 noundef %1) #6 comdat align 2 {
  %3 = alloca ptr, align 8
  %4 = alloca i64, align 8
  %5 = alloca i8, align 1
  store ptr %0, ptr %3, align 8, !tbaa !65
  store i64 %1, ptr %4, align 8, !tbaa !19
  %6 = load ptr, ptr %3, align 8
  %7 = load i64, ptr %4, align 8, !tbaa !19
  call void @_ZNSt7__cxx1112basic_stringIcSt11char_traitsIcESaIcEE9_M_lengthEm(ptr noundef nonnull align 8 dereferenceable(32) %6, i64 noundef %7)
  %8 = call noundef ptr @_ZNKSt7__cxx1112basic_stringIcSt11char_traitsIcESaIcEE7_M_dataEv(ptr noundef nonnull align 8 dereferenceable(32) %6)
  %9 = load i64, ptr %4, align 8, !tbaa !19
  %10 = getelementptr inbounds nuw i8, ptr %8, i64 %9
  call void @llvm.lifetime.start.p0(i64 1, ptr %5) #3
  store i8 0, ptr %5, align 1, !tbaa !38
  call void @_ZNSt11char_traitsIcE6assignERcRKc(ptr noundef nonnull align 1 dereferenceable(1) %10, ptr noundef nonnull align 1 dereferenceable(1) %5) #3
  call void @llvm.lifetime.end.p0(i64 1, ptr %5) #3
  ret void
}

; Function Attrs: mustprogress nounwind uwtable
define linkonce_odr dso_local noundef i64 @_ZNKSt7__cxx1112basic_stringIcSt11char_traitsIcESaIcEE4sizeEv(ptr noundef nonnull align 8 dereferenceable(32) %0) #4 comdat align 2 {
  %2 = alloca ptr, align 8
  store ptr %0, ptr %2, align 8, !tbaa !65
  %3 = load ptr, ptr %2, align 8
  %4 = getelementptr inbounds nuw %"class.std::__cxx11::basic_string", ptr %3, i32 0, i32 1
  %5 = load i64, ptr %4, align 8, !tbaa !68
  ret i64 %5
}

; Function Attrs: mustprogress nounwind uwtable
define linkonce_odr dso_local noundef ptr @_ZNKSt7__cxx1112basic_stringIcSt11char_traitsIcESaIcEE4dataEv(ptr noundef nonnull align 8 dereferenceable(32) %0) #4 comdat align 2 personality ptr @__gxx_personality_v0 {
  %2 = alloca ptr, align 8
  store ptr %0, ptr %2, align 8, !tbaa !65
  %3 = load ptr, ptr %2, align 8
  %4 = invoke noundef ptr @_ZNKSt7__cxx1112basic_stringIcSt11char_traitsIcESaIcEE7_M_dataEv(ptr noundef nonnull align 8 dereferenceable(32) %3)
          to label %5 unwind label %6

5:                                                ; preds = %1
  ret ptr %4

6:                                                ; preds = %1
  %7 = landingpad { ptr, i32 }
          catch ptr null
  %8 = extractvalue { ptr, i32 } %7, 0
  call void @__clang_call_terminate(ptr %8) #21
  unreachable
}

; Function Attrs: mustprogress nounwind uwtable
define linkonce_odr dso_local void @_ZNSt7__cxx1112basic_stringIcSt11char_traitsIcESaIcEE5clearEv(ptr noundef nonnull align 8 dereferenceable(32) %0) #4 comdat align 2 personality ptr @__gxx_personality_v0 {
  %2 = alloca ptr, align 8
  store ptr %0, ptr %2, align 8, !tbaa !65
  %3 = load ptr, ptr %2, align 8
  invoke void @_ZNSt7__cxx1112basic_stringIcSt11char_traitsIcESaIcEE13_M_set_lengthEm(ptr noundef nonnull align 8 dereferenceable(32) %3, i64 noundef 0)
          to label %4 unwind label %5

4:                                                ; preds = %1
  ret void

5:                                                ; preds = %1
  %6 = landingpad { ptr, i32 }
          catch ptr null
  %7 = extractvalue { ptr, i32 } %6, 0
  call void @__clang_call_terminate(ptr %7) #21
  unreachable
}

; Function Attrs: mustprogress uwtable
define available_externally noundef nonnull align 8 dereferenceable(8) ptr @_ZNSolsEPFRSoS_E(ptr noundef nonnull align 8 dereferenceable(8) %0, ptr noundef %1) #6 align 2 {
  %3 = alloca ptr, align 8
  %4 = alloca ptr, align 8
  store ptr %0, ptr %3, align 8, !tbaa !63
  store ptr %1, ptr %4, align 8, !tbaa !67
  %5 = load ptr, ptr %3, align 8
  %6 = load ptr, ptr %4, align 8, !tbaa !67
  %7 = call noundef nonnull align 8 dereferenceable(8) ptr %6(ptr noundef nonnull align 8 dereferenceable(8) %5)
  ret ptr %7
}

; Function Attrs: inlinehint mustprogress uwtable
define available_externally noundef nonnull align 8 dereferenceable(8) ptr @_ZStlsIcSt11char_traitsIcESaIcEERSt13basic_ostreamIT_T0_ES7_RKNSt7__cxx1112basic_stringIS4_S5_T1_EE(ptr noundef nonnull align 8 dereferenceable(8) %0, ptr noundef nonnull align 8 dereferenceable(32) %1) #7 {
  %3 = alloca ptr, align 8
  %4 = alloca ptr, align 8
  store ptr %0, ptr %3, align 8, !tbaa !63
  store ptr %1, ptr %4, align 8, !tbaa !65
  %5 = load ptr, ptr %3, align 8, !tbaa !63
  %6 = load ptr, ptr %4, align 8, !tbaa !65
  %7 = call noundef ptr @_ZNKSt7__cxx1112basic_stringIcSt11char_traitsIcESaIcEE4dataEv(ptr noundef nonnull align 8 dereferenceable(32) %6) #3
  %8 = load ptr, ptr %4, align 8, !tbaa !65
  %9 = call noundef i64 @_ZNKSt7__cxx1112basic_stringIcSt11char_traitsIcESaIcEE4sizeEv(ptr noundef nonnull align 8 dereferenceable(32) %8) #3
  %10 = call noundef nonnull align 8 dereferenceable(8) ptr @_ZSt16__ostream_insertIcSt11char_traitsIcEERSt13basic_ostreamIT_T0_ES6_PKS3_l(ptr noundef nonnull align 8 dereferenceable(8) %5, ptr noundef %7, i64 noundef %9)
  ret ptr %10
}

; Function Attrs: inlinehint mustprogress uwtable
define linkonce_odr dso_local noundef i32 @_ZN7msgpack2v26parserI17json_like_printer10do_nothingE11execute_impEv(ptr noundef nonnull align 8 dereferenceable(112) %0) #7 comdat align 2 {
  %2 = alloca ptr, align 8
  %3 = alloca i64, align 8
  %4 = alloca i32, align 4
  store ptr %0, ptr %2, align 8, !tbaa !33
  %5 = load ptr, ptr %2, align 8
  call void @llvm.lifetime.start.p0(i64 8, ptr %3) #3
  %6 = getelementptr inbounds nuw %"class.msgpack::v2::parser", ptr %5, i32 0, i32 4
  %7 = load i64, ptr %6, align 8, !tbaa !145
  store i64 %7, ptr %3, align 8, !tbaa !19
  call void @llvm.lifetime.start.p0(i64 4, ptr %4) #3
  %8 = getelementptr inbounds nuw %"class.msgpack::v2::parser", ptr %5, i32 0, i32 1
  %9 = load ptr, ptr %8, align 8, !tbaa !134
  %10 = getelementptr inbounds nuw %"class.msgpack::v2::parser", ptr %5, i32 0, i32 2
  %11 = load i64, ptr %10, align 8, !tbaa !143
  %12 = getelementptr inbounds nuw %"class.msgpack::v2::parser", ptr %5, i32 0, i32 4
  %13 = call noundef i32 @_ZN7msgpack2v26detail7contextI17json_like_printerE7executeEPKcmRm(ptr noundef nonnull align 8 dereferenceable(56) %5, ptr noundef %9, i64 noundef %11, ptr noundef nonnull align 8 dereferenceable(8) %12)
  store i32 %13, ptr %4, align 4, !tbaa !35
  %14 = getelementptr inbounds nuw %"class.msgpack::v2::parser", ptr %5, i32 0, i32 4
  %15 = load i64, ptr %14, align 8, !tbaa !145
  %16 = load i64, ptr %3, align 8, !tbaa !19
  %17 = icmp ugt i64 %15, %16
  br i1 %17, label %18, label %26

18:                                               ; preds = %1
  %19 = getelementptr inbounds nuw %"class.msgpack::v2::parser", ptr %5, i32 0, i32 4
  %20 = load i64, ptr %19, align 8, !tbaa !145
  %21 = load i64, ptr %3, align 8, !tbaa !19
  %22 = sub i64 %20, %21
  %23 = getelementptr inbounds nuw %"class.msgpack::v2::parser", ptr %5, i32 0, i32 5
  %24 = load i64, ptr %23, align 8, !tbaa !146
  %25 = add i64 %24, %22
  store i64 %25, ptr %23, align 8, !tbaa !146
  br label %26

26:                                               ; preds = %18, %1
  %27 = load i32, ptr %4, align 4, !tbaa !35
  call void @llvm.lifetime.end.p0(i64 4, ptr %4) #3
  call void @llvm.lifetime.end.p0(i64 8, ptr %3) #3
  ret i32 %27
}

; Function Attrs: inlinehint mustprogress nounwind uwtable
define linkonce_odr dso_local void @_ZN7msgpack2v26parserI17json_like_printer10do_nothingE15buffer_consumedEm(ptr noundef nonnull align 8 dereferenceable(112) %0, i64 noundef %1) #10 comdat align 2 {
  %3 = alloca ptr, align 8
  %4 = alloca i64, align 8
  store ptr %0, ptr %3, align 8, !tbaa !33
  store i64 %1, ptr %4, align 8, !tbaa !19
  %5 = load ptr, ptr %3, align 8
  %6 = load i64, ptr %4, align 8, !tbaa !19
  %7 = getelementptr inbounds nuw %"class.msgpack::v2::parser", ptr %5, i32 0, i32 2
  %8 = load i64, ptr %7, align 8, !tbaa !143
  %9 = add i64 %8, %6
  store i64 %9, ptr %7, align 8, !tbaa !143
  %10 = load i64, ptr %4, align 8, !tbaa !19
  %11 = getelementptr inbounds nuw %"class.msgpack::v2::parser", ptr %5, i32 0, i32 3
  %12 = load i64, ptr %11, align 8, !tbaa !144
  %13 = sub i64 %12, %10
  store i64 %13, ptr %11, align 8, !tbaa !144
  ret void
}

; Function Attrs: inlinehint mustprogress nounwind uwtable
define linkonce_odr dso_local noundef ptr @_ZN7msgpack2v26parserI17json_like_printer10do_nothingE6bufferEv(ptr noundef nonnull align 8 dereferenceable(112) %0) #10 comdat align 2 {
  %2 = alloca ptr, align 8
  store ptr %0, ptr %2, align 8, !tbaa !33
  %3 = load ptr, ptr %2, align 8
  %4 = getelementptr inbounds nuw %"class.msgpack::v2::parser", ptr %3, i32 0, i32 1
  %5 = load ptr, ptr %4, align 8, !tbaa !134
  %6 = getelementptr inbounds nuw %"class.msgpack::v2::parser", ptr %3, i32 0, i32 2
  %7 = load i64, ptr %6, align 8, !tbaa !143
  %8 = getelementptr inbounds nuw i8, ptr %5, i64 %7
  ret ptr %8
}

; Function Attrs: inlinehint mustprogress uwtable
define linkonce_odr dso_local void @_ZN7msgpack2v26parserI17json_like_printer10do_nothingE14reserve_bufferEm(ptr noundef nonnull align 8 dereferenceable(112) %0, i64 noundef %1) #7 comdat align 2 {
  %3 = alloca ptr, align 8
  %4 = alloca i64, align 8
  store ptr %0, ptr %3, align 8, !tbaa !33
  store i64 %1, ptr %4, align 8, !tbaa !19
  %5 = load ptr, ptr %3, align 8
  %6 = getelementptr inbounds nuw %"class.msgpack::v2::parser", ptr %5, i32 0, i32 3
  %7 = load i64, ptr %6, align 8, !tbaa !144
  %8 = load i64, ptr %4, align 8, !tbaa !19
  %9 = icmp uge i64 %7, %8
  br i1 %9, label %10, label %11

10:                                               ; preds = %2
  br label %13

11:                                               ; preds = %2
  %12 = load i64, ptr %4, align 8, !tbaa !19
  call void @_ZN7msgpack2v26parserI17json_like_printer10do_nothingE13expand_bufferEm(ptr noundef nonnull align 8 dereferenceable(112) %5, i64 noundef %12)
  br label %13

13:                                               ; preds = %11, %10
  ret void
}

; Function Attrs: inlinehint mustprogress nounwind uwtable
define linkonce_odr dso_local noundef i64 @_ZNK7msgpack2v26parserI17json_like_printer10do_nothingE15buffer_capacityEv(ptr noundef nonnull align 8 dereferenceable(112) %0) #10 comdat align 2 {
  %2 = alloca ptr, align 8
  store ptr %0, ptr %2, align 8, !tbaa !33
  %3 = load ptr, ptr %2, align 8
  %4 = getelementptr inbounds nuw %"class.msgpack::v2::parser", ptr %3, i32 0, i32 3
  %5 = load i64, ptr %4, align 8, !tbaa !144
  ret i64 %5
}

; Function Attrs: mustprogress uwtable
define linkonce_odr dso_local void @_ZN17json_like_printer5printEv(ptr noundef nonnull align 8 dereferenceable(160) %0) #6 comdat align 2 {
  %2 = alloca ptr, align 8
  store ptr %0, ptr %2, align 8, !tbaa !27
  %3 = load ptr, ptr %2, align 8
  %4 = getelementptr inbounds nuw %class.json_like_printer, ptr %3, i32 0, i32 2
  %5 = call noundef nonnull align 8 dereferenceable(8) ptr @_ZStlsIcSt11char_traitsIcESaIcEERSt13basic_ostreamIT_T0_ES7_RKNSt7__cxx1112basic_stringIS4_S5_T1_EE(ptr noundef nonnull align 8 dereferenceable(8) @_ZSt4cout, ptr noundef nonnull align 8 dereferenceable(32) %4)
  %6 = call noundef nonnull align 8 dereferenceable(8) ptr @_ZNSolsEPFRSoS_E(ptr noundef nonnull align 8 dereferenceable(8) %5, ptr noundef @_ZSt4endlIcSt11char_traitsIcEERSt13basic_ostreamIT_T0_ES6_)
  %7 = getelementptr inbounds nuw %class.json_like_printer, ptr %3, i32 0, i32 2
  call void @_ZNSt7__cxx1112basic_stringIcSt11char_traitsIcESaIcEE5clearEv(ptr noundef nonnull align 8 dereferenceable(32) %7) #3
  ret void
}

; Function Attrs: inlinehint mustprogress uwtable
define linkonce_odr dso_local noundef zeroext i1 @_ZN7msgpack2v26parserI17json_like_printer10do_nothingE4nextEv(ptr noundef nonnull align 8 dereferenceable(112) %0) #7 comdat align 2 {
  %2 = alloca ptr, align 8
  %3 = alloca i32, align 4
  store ptr %0, ptr %2, align 8, !tbaa !33
  %4 = load ptr, ptr %2, align 8
  call void @llvm.lifetime.start.p0(i64 4, ptr %3) #3
  %5 = call noundef i32 @_ZN7msgpack2v26parserI17json_like_printer10do_nothingE11execute_impEv(ptr noundef nonnull align 8 dereferenceable(112) %4)
  store i32 %5, ptr %3, align 4, !tbaa !35
  %6 = load i32, ptr %3, align 4, !tbaa !35
  %7 = icmp eq i32 %6, 2
  call void @llvm.lifetime.end.p0(i64 4, ptr %3) #3
  ret i1 %7
}

; Function Attrs: mustprogress uwtable
define linkonce_odr dso_local void @_ZN10ref_bufferI17json_like_printerE5writeEPKcm(ptr noundef nonnull align 8 dereferenceable(8) %0, ptr noundef %1, i64 noundef %2) #6 comdat align 2 {
  %4 = alloca ptr, align 8
  %5 = alloca ptr, align 8
  %6 = alloca i64, align 8
  store ptr %0, ptr %4, align 8, !tbaa !25
  store ptr %1, ptr %5, align 8, !tbaa !15
  store i64 %2, ptr %6, align 8, !tbaa !19
  %7 = load ptr, ptr %4, align 8
  %8 = load i64, ptr %6, align 8, !tbaa !19
  %9 = getelementptr inbounds nuw %struct.ref_buffer, ptr %7, i32 0, i32 0
  %10 = load ptr, ptr %9, align 8, !tbaa !31
  %11 = call noundef i64 @_ZNK7msgpack2v26parserI17json_like_printer10do_nothingE15buffer_capacityEv(ptr noundef nonnull align 8 dereferenceable(112) %10)
  %12 = icmp ugt i64 %8, %11
  br i1 %12, label %13, label %21

13:                                               ; preds = %3
  %14 = getelementptr inbounds nuw %struct.ref_buffer, ptr %7, i32 0, i32 0
  %15 = load ptr, ptr %14, align 8, !tbaa !31
  %16 = load i64, ptr %6, align 8, !tbaa !19
  %17 = getelementptr inbounds nuw %struct.ref_buffer, ptr %7, i32 0, i32 0
  %18 = load ptr, ptr %17, align 8, !tbaa !31
  %19 = call noundef i64 @_ZNK7msgpack2v26parserI17json_like_printer10do_nothingE15buffer_capacityEv(ptr noundef nonnull align 8 dereferenceable(112) %18)
  %20 = sub i64 %16, %19
  call void @_ZN7msgpack2v26parserI17json_like_printer10do_nothingE14reserve_bufferEm(ptr noundef nonnull align 8 dereferenceable(112) %15, i64 noundef %20)
  br label %21

21:                                               ; preds = %13, %3
  %22 = getelementptr inbounds nuw %struct.ref_buffer, ptr %7, i32 0, i32 0
  %23 = load ptr, ptr %22, align 8, !tbaa !31
  %24 = call noundef ptr @_ZN7msgpack2v26parserI17json_like_printer10do_nothingE6bufferEv(ptr noundef nonnull align 8 dereferenceable(112) %23)
  %25 = load ptr, ptr %5, align 8, !tbaa !15
  %26 = load i64, ptr %6, align 8, !tbaa !19
  call void @llvm.memcpy.p0.p0.i64(ptr align 1 %24, ptr align 1 %25, i64 %26, i1 false)
  %27 = getelementptr inbounds nuw %struct.ref_buffer, ptr %7, i32 0, i32 0
  %28 = load ptr, ptr %27, align 8, !tbaa !31
  %29 = load i64, ptr %6, align 8, !tbaa !19
  call void @_ZN7msgpack2v26parserI17json_like_printer10do_nothingE15buffer_consumedEm(ptr noundef nonnull align 8 dereferenceable(112) %28, i64 noundef %29)
  ret void
}

; Function Attrs: mustprogress uwtable
define dso_local void @_Z7consumePKcmR10ref_bufferI17json_like_printerERS2_(ptr noundef %0, i64 noundef %1, ptr noundef nonnull align 8 dereferenceable(8) %2, ptr noundef nonnull align 8 dereferenceable(160) %3) #6 {
  %5 = alloca ptr, align 8
  %6 = alloca i64, align 8
  %7 = alloca ptr, align 8
  %8 = alloca ptr, align 8
  store ptr %0, ptr %5, align 8, !tbaa !15
  store i64 %1, ptr %6, align 8, !tbaa !19
  store ptr %2, ptr %7, align 8, !tbaa !25
  store ptr %3, ptr %8, align 8, !tbaa !27
  %9 = load ptr, ptr %7, align 8, !tbaa !25
  %10 = load ptr, ptr %5, align 8, !tbaa !15
  %11 = load i64, ptr %6, align 8, !tbaa !19
  call void @_ZN10ref_bufferI17json_like_printerE5writeEPKcm(ptr noundef nonnull align 8 dereferenceable(8) %9, ptr noundef %10, i64 noundef %11)
  br label %12

12:                                               ; preds = %15, %4
  %13 = load ptr, ptr %8, align 8, !tbaa !27
  %14 = call noundef zeroext i1 @_ZN7msgpack2v26parserI17json_like_printer10do_nothingE4nextEv(ptr noundef nonnull align 8 dereferenceable(112) %13)
  br i1 %14, label %15, label %17

15:                                               ; preds = %12
  %16 = load ptr, ptr %8, align 8, !tbaa !27
  call void @_ZN17json_like_printer5printEv(ptr noundef nonnull align 8 dereferenceable(160) %16)
  br label %12, !llvm.loop !29

17:                                               ; preds = %12
  ret void
}