; Function Attrs: mustprogress uwtable
define dso_local void @_Z7consumePKcmR10ref_bufferI17json_like_printerERS2_(ptr noundef readonly captures(none) %0, i64 noundef %1, ptr noundef nonnull readonly align 8 captures(none) dereferenceable(8) %2, ptr noundef nonnull align 8 dereferenceable(160) %3) local_unnamed_addr #5 personality ptr @__gxx_personality_v0 {
  %5 = load ptr, ptr %2, align 8, !tbaa !10
  %6 = getelementptr inbounds nuw i8, ptr %5, i64 72
  %7 = load i64, ptr %6, align 8, !tbaa !14
  %8 = icmp ugt i64 %1, %7
  br i1 %8, label %9, label %_ZN10ref_bufferI17json_like_printerE5writeEPKcm.exit

9:                                                ; preds = %4
  %10 = sub nuw i64 %1, %7
  %.not.i.i = icmp ult i64 %7, %10
  br i1 %.not.i.i, label %11, label %_ZN10ref_bufferI17json_like_printerE5writeEPKcm.exit

11:                                               ; preds = %9
  tail call void @_ZN7msgpack2v26parserI17json_like_printer10do_nothingE13expand_bufferEm(ptr noundef nonnull align 8 dereferenceable(112) %5, i64 noundef %10)
  %.pre.i = load ptr, ptr %2, align 8, !tbaa !10
  br label %_ZN10ref_bufferI17json_like_printerE5writeEPKcm.exit

_ZN10ref_bufferI17json_like_printerE5writeEPKcm.exit: ; preds = %4, %9, %11
  %12 = phi ptr [ %.pre.i, %11 ], [ %5, %9 ], [ %5, %4 ]
  %13 = getelementptr inbounds nuw i8, ptr %12, i64 56
  %14 = load ptr, ptr %13, align 8, !tbaa !26
  %15 = getelementptr inbounds nuw i8, ptr %12, i64 64
  %16 = load i64, ptr %15, align 8, !tbaa !27
  %17 = getelementptr inbounds nuw i8, ptr %14, i64 %16
  tail call void @llvm.memcpy.p0.p0.i64(ptr align 1 %17, ptr align 1 %0, i64 %1, i1 false)
  %18 = load ptr, ptr %2, align 8, !tbaa !10
  %19 = getelementptr inbounds nuw i8, ptr %18, i64 64
  %20 = load i64, ptr %19, align 8, !tbaa !27
  %21 = add i64 %20, %1
  store i64 %21, ptr %19, align 8, !tbaa !27
  %22 = getelementptr inbounds nuw i8, ptr %18, i64 72
  %23 = load i64, ptr %22, align 8, !tbaa !14
  %24 = sub i64 %23, %1
  store i64 %24, ptr %22, align 8, !tbaa !14
  %25 = getelementptr inbounds nuw i8, ptr %3, i64 80
  %26 = getelementptr inbounds nuw i8, ptr %3, i64 56
  %27 = getelementptr inbounds nuw i8, ptr %3, i64 64
  %28 = getelementptr inbounds nuw i8, ptr %3, i64 88
  %29 = getelementptr inbounds nuw i8, ptr %3, i64 128
  %30 = getelementptr inbounds nuw i8, ptr %3, i64 136
  br label %31

31:                                               ; preds = %_ZN17json_like_printer5printEv.exit, %_ZN10ref_bufferI17json_like_printerE5writeEPKcm.exit
  %32 = load i64, ptr %25, align 8, !tbaa !28
  %33 = load ptr, ptr %26, align 8, !tbaa !26
  %34 = load i64, ptr %27, align 8, !tbaa !27
  %35 = tail call noundef i32 @_ZN7msgpack2v26detail7contextI17json_like_printerE7executeEPKcmRm(ptr noundef nonnull align 8 dereferenceable(112) %3, ptr noundef %33, i64 noundef %34, ptr noundef nonnull align 8 dereferenceable(8) %25)
  %36 = load i64, ptr %25, align 8, !tbaa !28
  %37 = icmp ugt i64 %36, %32
  br i1 %37, label %38, label %_ZN7msgpack2v26parserI17json_like_printer10do_nothingE4nextEv.exit

38:                                               ; preds = %31
  %39 = sub nuw i64 %36, %32
  %40 = load i64, ptr %28, align 8, !tbaa !29
  %41 = add i64 %39, %40
  store i64 %41, ptr %28, align 8, !tbaa !29
  br label %_ZN7msgpack2v26parserI17json_like_printer10do_nothingE4nextEv.exit

_ZN7msgpack2v26parserI17json_like_printer10do_nothingE4nextEv.exit: ; preds = %31, %38
  %42 = icmp eq i32 %35, 2
  br i1 %42, label %43, label %67

43:                                               ; preds = %_ZN7msgpack2v26parserI17json_like_printer10do_nothingE4nextEv.exit
  %44 = load ptr, ptr %29, align 8, !tbaa !30
  %45 = load i64, ptr %30, align 8, !tbaa !33
  %46 = tail call noundef nonnull align 8 dereferenceable(8) ptr @_ZSt16__ostream_insertIcSt11char_traitsIcEERSt13basic_ostreamIT_T0_ES6_PKS3_l(ptr noundef nonnull align 8 dereferenceable(8) @_ZSt4cout, ptr noundef %44, i64 noundef %45)
  %47 = load ptr, ptr %46, align 8, !tbaa !34
  %48 = getelementptr i8, ptr %47, i64 -24
  %49 = load i64, ptr %48, align 8
  %50 = getelementptr inbounds i8, ptr %46, i64 %49
  %51 = getelementptr inbounds nuw i8, ptr %50, i64 240
  %52 = load ptr, ptr %51, align 8, !tbaa !36
  %.not.i.i.i.i = icmp eq ptr %52, null
  br i1 %.not.i.i.i.i, label %53, label %_ZSt13__check_facetISt5ctypeIcEERKT_PS3_.exit.i.i.i

53:                                               ; preds = %43
  tail call void @_ZSt16__throw_bad_castv() #26
  unreachable

_ZSt13__check_facetISt5ctypeIcEERKT_PS3_.exit.i.i.i: ; preds = %43
  %54 = getelementptr inbounds nuw i8, ptr %52, i64 56
  %55 = load i8, ptr %54, align 8, !tbaa !52
  %.not.i1.i.i.i = icmp eq i8 %55, 0
  br i1 %.not.i1.i.i.i, label %59, label %56

56:                                               ; preds = %_ZSt13__check_facetISt5ctypeIcEERKT_PS3_.exit.i.i.i
  %57 = getelementptr inbounds nuw i8, ptr %52, i64 67
  %58 = load i8, ptr %57, align 1, !tbaa !58
  br label %_ZN17json_like_printer5printEv.exit

59:                                               ; preds = %_ZSt13__check_facetISt5ctypeIcEERKT_PS3_.exit.i.i.i
  tail call void @_ZNKSt5ctypeIcE13_M_widen_initEv(ptr noundef nonnull align 8 dereferenceable(570) %52)
  %60 = load ptr, ptr %52, align 8, !tbaa !34
  %61 = getelementptr inbounds nuw i8, ptr %60, i64 48
  %62 = load ptr, ptr %61, align 8
  %63 = tail call noundef signext i8 %62(ptr noundef nonnull align 8 dereferenceable(570) %52, i8 noundef signext 10)
  br label %_ZN17json_like_printer5printEv.exit

_ZN17json_like_printer5printEv.exit:              ; preds = %56, %59
  %.0.i.i.i.i = phi i8 [ %58, %56 ], [ %63, %59 ]
  %64 = tail call noundef nonnull align 8 dereferenceable(8) ptr @_ZNSo3putEc(ptr noundef nonnull align 8 dereferenceable(8) %46, i8 noundef signext %.0.i.i.i.i)
  %65 = tail call noundef nonnull align 8 dereferenceable(8) ptr @_ZNSo5flushEv(ptr noundef nonnull align 8 dereferenceable(8) %64)
  store i64 0, ptr %30, align 8, !tbaa !33
  %66 = load ptr, ptr %29, align 8, !tbaa !30
  store i8 0, ptr %66, align 1, !tbaa !58
  br label %31, !llvm.loop !59

67:                                               ; preds = %_ZN7msgpack2v26parserI17json_like_printer10do_nothingE4nextEv.exit
  ret void
}